# SymbolsHelper-Confirmed: 1:5.69.0 amd64
libKF5Syndication.so.5abi1 libkf5syndication5abi1 #MINVER#
* Build-Depends-Package: libkf5syndication-dev
 ABI_5_1@ABI_5_1 18.07.90
 _ZN11Syndication10LoaderUtil9parseFeedERK10QByteArrayRK4QUrl@ABI_5_1 1:5.69.0
 _ZN11Syndication10PersonImplC1ERK7QStringS3_S3_@ABI_5_1 18.07.90
 _ZN11Syndication10PersonImplC1Ev@ABI_5_1 18.07.90
 _ZN11Syndication10PersonImplC2ERK7QStringS3_S3_@ABI_5_1 18.07.90
 _ZN11Syndication10PersonImplC2Ev@ABI_5_1 18.07.90
 _ZN11Syndication12SpecificItemD0Ev@ABI_5_1 18.07.90
 _ZN11Syndication12SpecificItemD1Ev@ABI_5_1 18.07.90
 _ZN11Syndication12SpecificItemD2Ev@ABI_5_1 18.07.90
 _ZN11Syndication12parseISODateERK7QString@ABI_5_1 18.07.90
 _ZN11Syndication12parseRFCDateERK7QString@ABI_5_1 18.07.90
 _ZN11Syndication12xmlNamespaceEv@ABI_5_1 18.07.90
 _ZN11Syndication13DataRetriever11qt_metacallEN11QMetaObject4CallEiPPv@ABI_5_1 18.07.90
 _ZN11Syndication13DataRetriever11qt_metacastEPKc@ABI_5_1 18.07.90
 _ZN11Syndication13DataRetriever13dataRetrievedERK10QByteArrayb@ABI_5_1 18.07.90
 _ZN11Syndication13DataRetriever16staticMetaObjectE@ABI_5_1 18.07.90
 _ZN11Syndication13DataRetrieverC1Ev@ABI_5_1 18.07.90
 _ZN11Syndication13DataRetrieverC2Ev@ABI_5_1 18.07.90
 _ZN11Syndication13DataRetrieverD0Ev@ABI_5_1 18.07.90
 _ZN11Syndication13DataRetrieverD1Ev@ABI_5_1 18.07.90
 _ZN11Syndication13DataRetrieverD2Ev@ABI_5_1 18.07.90
 _ZN11Syndication14AbstractParserD0Ev@ABI_5_1 18.07.90
 _ZN11Syndication14AbstractParserD1Ev@ABI_5_1 18.07.90
 _ZN11Syndication14AbstractParserD2Ev@ABI_5_1 18.07.90
 _ZN11Syndication14DocumentSourceC1ERK10QByteArrayRK7QString@ABI_5_1 18.07.90
 _ZN11Syndication14DocumentSourceC1ERKS0_@ABI_5_1 18.07.90
 _ZN11Syndication14DocumentSourceC1Ev@ABI_5_1 18.07.90
 _ZN11Syndication14DocumentSourceC2ERK10QByteArrayRK7QString@ABI_5_1 18.07.90
 _ZN11Syndication14DocumentSourceC2ERKS0_@ABI_5_1 18.07.90
 _ZN11Syndication14DocumentSourceC2Ev@ABI_5_1 18.07.90
 _ZN11Syndication14DocumentSourceD1Ev@ABI_5_1 18.07.90
 _ZN11Syndication14DocumentSourceD2Ev@ABI_5_1 18.07.90
 _ZN11Syndication14DocumentSourceaSERKS0_@ABI_5_1 18.07.90
 _ZN11Syndication14ElementWrapper15childNodesAsXMLERK11QDomElement@ABI_5_1 18.07.90
 _ZN11Syndication14ElementWrapperC1ERK11QDomElement@ABI_5_1 18.07.90
 _ZN11Syndication14ElementWrapperC1ERKS0_@ABI_5_1 18.07.90
 _ZN11Syndication14ElementWrapperC1Ev@ABI_5_1 18.07.90
 _ZN11Syndication14ElementWrapperC2ERK11QDomElement@ABI_5_1 18.07.90
 _ZN11Syndication14ElementWrapperC2ERKS0_@ABI_5_1 18.07.90
 _ZN11Syndication14ElementWrapperC2Ev@ABI_5_1 18.07.90
 _ZN11Syndication14ElementWrapperD0Ev@ABI_5_1 18.07.90
 _ZN11Syndication14ElementWrapperD1Ev@ABI_5_1 18.07.90
 _ZN11Syndication14ElementWrapperD2Ev@ABI_5_1 18.07.90
 _ZN11Syndication14ElementWrapperaSERKS0_@ABI_5_1 18.07.90
 _ZN11Syndication14slashNamespaceEv@ABI_5_1 18.07.90
 _ZN11Syndication14xhtmlNamespaceEv@ABI_5_1 18.07.90
 _ZN11Syndication15DocumentVisitor16visitRDFDocumentEPNS_3RDF8DocumentE@ABI_5_1 18.07.90
 _ZN11Syndication15DocumentVisitor17visitRSS2DocumentEPNS_4RSS28DocumentE@ABI_5_1 18.07.90
 _ZN11Syndication15DocumentVisitor21visitAtomFeedDocumentEPNS_4Atom12FeedDocumentE@ABI_5_1 18.07.90
 _ZN11Syndication15DocumentVisitor22visitAtomEntryDocumentEPNS_4Atom13EntryDocumentE@ABI_5_1 18.07.90
 _ZN11Syndication15DocumentVisitor5visitEPNS_16SpecificDocumentE@ABI_5_1 18.07.90
 _ZN11Syndication15DocumentVisitorD0Ev@ABI_5_1 18.07.90
 _ZN11Syndication15DocumentVisitorD1Ev@ABI_5_1 18.07.90
 _ZN11Syndication15DocumentVisitorD2Ev@ABI_5_1 18.07.90
 _ZN11Syndication15convertNewlinesERK7QString@ABI_5_1 18.07.90
 _ZN11Syndication15htmlToPlainTextERK7QString@ABI_5_1 18.07.90
 _ZN11Syndication15itunesNamespaceEv@ABI_5_1 18.07.90
 _ZN11Syndication15plainTextToHtmlERK7QString@ABI_5_1 18.07.90
 _ZN11Syndication15resolveEntitiesERK7QString@ABI_5_1 18.07.90
 _ZN11Syndication16SpecificDocumentD0Ev@ABI_5_1 18.07.90
 _ZN11Syndication16SpecificDocumentD1Ev@ABI_5_1 18.07.90
 _ZN11Syndication16SpecificDocumentD2Ev@ABI_5_1 18.07.90
 _ZN11Syndication16contentNameSpaceEv@ABI_5_1 18.07.90
 _ZN11Syndication16dateTimeToStringEj@ABI_5_1 18.07.90
 _ZN11Syndication16parserCollectionEv@ABI_5_1 18.07.90
 _ZN11Syndication16personFromStringERK7QString@ABI_5_1 18.07.90
 _ZN11Syndication19SpecificItemVisitor12visitRDFItemEPNS_3RDF4ItemE@ABI_5_1 18.07.90
 _ZN11Syndication19SpecificItemVisitor13visitRSS2ItemEPNS_4RSS24ItemE@ABI_5_1 18.07.90
 _ZN11Syndication19SpecificItemVisitor14visitAtomEntryEPNS_4Atom5EntryE@ABI_5_1 18.07.90
 _ZN11Syndication19SpecificItemVisitor5visitEPNS_12SpecificItemE@ABI_5_1 18.07.90
 _ZN11Syndication19SpecificItemVisitorD0Ev@ABI_5_1 18.07.90
 _ZN11Syndication19SpecificItemVisitorD1Ev@ABI_5_1 18.07.90
 _ZN11Syndication19SpecificItemVisitorD2Ev@ABI_5_1 18.07.90
 _ZN11Syndication19commentApiNamespaceEv@ABI_5_1 18.07.90
 _ZN11Syndication19dublinCoreNamespaceEv@ABI_5_1 18.07.90
 (optional=templinst)_ZN11Syndication20ParserCollectionImplINS_4FeedEE12changeMapperERK7QStringPNS_6MapperIS1_EE@ABI_5_1 18.07.90
 (optional=templinst)_ZN11Syndication20ParserCollectionImplINS_4FeedEE14registerParserEPNS_14AbstractParserEPNS_6MapperIS1_EE@ABI_5_1 18.07.90
 (optional=templinst)_ZN11Syndication20ParserCollectionImplINS_4FeedEE5parseERKNS_14DocumentSourceERK7QString@ABI_5_1 18.07.90
 (optional=templinst)_ZN11Syndication20ParserCollectionImplINS_4FeedEED0Ev@ABI_5_1 18.07.90
 (optional=templinst)_ZN11Syndication20ParserCollectionImplINS_4FeedEED1Ev@ABI_5_1 18.07.90
 (optional=templinst)_ZN11Syndication20ParserCollectionImplINS_4FeedEED2Ev@ABI_5_1 18.07.90
 _ZN11Syndication20stringContainsMarkupERK7QString@ABI_5_1 18.07.90
 _ZN11Syndication23escapeSpecialCharactersERK7QString@ABI_5_1 18.07.90
 _ZN11Syndication3RDF10DublinCoreC1E14QSharedPointerINS0_8ResourceEE@ABI_5_1 18.07.90
 _ZN11Syndication3RDF10DublinCoreC2E14QSharedPointerINS0_8ResourceEE@ABI_5_1 18.07.90
 _ZN11Syndication3RDF10DublinCoreD0Ev@ABI_5_1 18.07.90
 _ZN11Syndication3RDF10DublinCoreD1Ev@ABI_5_1 18.07.90
 _ZN11Syndication3RDF10DublinCoreD2Ev@ABI_5_1 18.07.90
 _ZN11Syndication3RDF10ModelMaker12readResourceERNS0_5ModelERK11QDomElement@ABI_5_1 18.07.90
 _ZN11Syndication3RDF10ModelMaker13createFromXMLERK12QDomDocument@ABI_5_1 18.07.90
 _ZN11Syndication3RDF10RSS09Vocab17RSS09VocabPrivate5sSelfE@ABI_5_1 18.07.90
 _ZN11Syndication3RDF10RSS09Vocab4selfEv@ABI_5_1 18.07.90
 _ZN11Syndication3RDF10RSS09VocabC1Ev@ABI_5_1 18.07.90
 _ZN11Syndication3RDF10RSS09VocabC2Ev@ABI_5_1 18.07.90
 _ZN11Syndication3RDF10RSS09VocabD1Ev@ABI_5_1 18.07.90
 _ZN11Syndication3RDF10RSS09VocabD2Ev@ABI_5_1 18.07.90
 _ZN11Syndication3RDF11NodeVisitor12visitLiteralE14QSharedPointerINS0_7LiteralEE@ABI_5_1 18.07.90
 _ZN11Syndication3RDF11NodeVisitor13visitPropertyE14QSharedPointerINS0_8PropertyEE@ABI_5_1 18.07.90
 _ZN11Syndication3RDF11NodeVisitor13visitResourceE14QSharedPointerINS0_8ResourceEE@ABI_5_1 18.07.90
 _ZN11Syndication3RDF11NodeVisitor13visitSequenceE14QSharedPointerINS0_8SequenceEE@ABI_5_1 18.07.90
 _ZN11Syndication3RDF11NodeVisitor5visitE14QSharedPointerINS0_4NodeEE@ABI_5_1 18.07.90
 _ZN11Syndication3RDF11NodeVisitor9visitNodeE14QSharedPointerINS0_4NodeEE@ABI_5_1 18.07.90
 _ZN11Syndication3RDF11NodeVisitorD0Ev@ABI_5_1 18.07.90
 _ZN11Syndication3RDF11NodeVisitorD1Ev@ABI_5_1 18.07.90
 _ZN11Syndication3RDF11NodeVisitorD2Ev@ABI_5_1 18.07.90
 _ZN11Syndication3RDF12ContentVocab19ContentVocabPrivate5sSelfE@ABI_5_1 18.07.90
 _ZN11Syndication3RDF12ContentVocab4selfEv@ABI_5_1 18.07.90
 _ZN11Syndication3RDF12ContentVocabC1Ev@ABI_5_1 18.07.90
 _ZN11Syndication3RDF12ContentVocabC2Ev@ABI_5_1 18.07.90
 _ZN11Syndication3RDF12ContentVocabD1Ev@ABI_5_1 18.07.90
 _ZN11Syndication3RDF12ContentVocabD2Ev@ABI_5_1 18.07.90
 _ZN11Syndication3RDF15DublinCoreVocab22DublinCoreVocabPrivate5sSelfE@ABI_5_1 18.07.90
 _ZN11Syndication3RDF15DublinCoreVocab4selfEv@ABI_5_1 18.07.90
 _ZN11Syndication3RDF15DublinCoreVocabC1Ev@ABI_5_1 18.07.90
 _ZN11Syndication3RDF15DublinCoreVocabC2Ev@ABI_5_1 18.07.90
 _ZN11Syndication3RDF15DublinCoreVocabD1Ev@ABI_5_1 18.07.90
 _ZN11Syndication3RDF15DublinCoreVocabD2Ev@ABI_5_1 18.07.90
 _ZN11Syndication3RDF15ResourceWrapperC1E14QSharedPointerINS0_8ResourceEE@ABI_5_1 18.07.90
 _ZN11Syndication3RDF15ResourceWrapperC1ERKS1_@ABI_5_1 18.07.90
 _ZN11Syndication3RDF15ResourceWrapperC1Ev@ABI_5_1 18.07.90
 _ZN11Syndication3RDF15ResourceWrapperC2E14QSharedPointerINS0_8ResourceEE@ABI_5_1 18.07.90
 _ZN11Syndication3RDF15ResourceWrapperC2ERKS1_@ABI_5_1 18.07.90
 _ZN11Syndication3RDF15ResourceWrapperC2Ev@ABI_5_1 18.07.90
 _ZN11Syndication3RDF15ResourceWrapperD0Ev@ABI_5_1 18.07.90
 _ZN11Syndication3RDF15ResourceWrapperD1Ev@ABI_5_1 18.07.90
 _ZN11Syndication3RDF15ResourceWrapperD2Ev@ABI_5_1 18.07.90
 _ZN11Syndication3RDF15ResourceWrapperaSERKS1_@ABI_5_1 18.07.90
 _ZN11Syndication3RDF15SyndicationInfo14periodToStringENS1_6PeriodE@ABI_5_1 18.07.90
 _ZN11Syndication3RDF15SyndicationInfo14stringToPeriodERK7QString@ABI_5_1 18.07.90
 _ZN11Syndication3RDF15SyndicationInfoC1E14QSharedPointerINS0_8ResourceEE@ABI_5_1 18.07.90
 _ZN11Syndication3RDF15SyndicationInfoC2E14QSharedPointerINS0_8ResourceEE@ABI_5_1 18.07.90
 _ZN11Syndication3RDF15SyndicationInfoD0Ev@ABI_5_1 18.07.90
 _ZN11Syndication3RDF15SyndicationInfoD1Ev@ABI_5_1 18.07.90
 _ZN11Syndication3RDF15SyndicationInfoD2Ev@ABI_5_1 18.07.90
 _ZN11Syndication3RDF16SyndicationVocab23SyndicationVocabPrivate5sSelfE@ABI_5_1 18.07.90
 _ZN11Syndication3RDF16SyndicationVocab4selfEv@ABI_5_1 18.07.90
 _ZN11Syndication3RDF16SyndicationVocabC1Ev@ABI_5_1 18.07.90
 _ZN11Syndication3RDF16SyndicationVocabC2Ev@ABI_5_1 18.07.90
 _ZN11Syndication3RDF16SyndicationVocabD1Ev@ABI_5_1 18.07.90
 _ZN11Syndication3RDF16SyndicationVocabD2Ev@ABI_5_1 18.07.90
 _ZN11Syndication3RDF4Item6acceptEPNS_19SpecificItemVisitorE@ABI_5_1 18.07.90
 _ZN11Syndication3RDF4ItemC1E14QSharedPointerINS0_8ResourceEES2_INS0_8DocumentEE@ABI_5_1 18.07.90
 _ZN11Syndication3RDF4ItemC1ERKS1_@ABI_5_1 18.07.90
 _ZN11Syndication3RDF4ItemC1Ev@ABI_5_1 18.07.90
 _ZN11Syndication3RDF4ItemC2E14QSharedPointerINS0_8ResourceEES2_INS0_8DocumentEE@ABI_5_1 18.07.90
 _ZN11Syndication3RDF4ItemC2ERKS1_@ABI_5_1 18.07.90
 _ZN11Syndication3RDF4ItemC2Ev@ABI_5_1 18.07.90
 _ZN11Syndication3RDF4ItemD0Ev@ABI_5_1 18.07.90
 _ZN11Syndication3RDF4ItemD1Ev@ABI_5_1 18.07.90
 _ZN11Syndication3RDF4ItemD2Ev@ABI_5_1 18.07.90
 _ZN11Syndication3RDF4ItemaSERKS1_@ABI_5_1 18.07.90
 _ZN11Syndication3RDF4Node6acceptEPNS0_11NodeVisitorE14QSharedPointerIS1_E@ABI_5_1 18.07.90
 _ZN11Syndication3RDF4Node9idCounterE@ABI_5_1 18.07.90
 _ZN11Syndication3RDF4NodeD0Ev@ABI_5_1 18.07.90
 _ZN11Syndication3RDF4NodeD1Ev@ABI_5_1 18.07.90
 _ZN11Syndication3RDF4NodeD2Ev@ABI_5_1 18.07.90
 _ZN11Syndication3RDF5ImageC1E14QSharedPointerINS0_8ResourceEE@ABI_5_1 18.07.90
 _ZN11Syndication3RDF5ImageC1Ev@ABI_5_1 18.07.90
 _ZN11Syndication3RDF5ImageC2E14QSharedPointerINS0_8ResourceEE@ABI_5_1 18.07.90
 _ZN11Syndication3RDF5ImageC2Ev@ABI_5_1 18.07.90
 _ZN11Syndication3RDF5ImageD0Ev@ABI_5_1 18.07.90
 _ZN11Syndication3RDF5ImageD1Ev@ABI_5_1 18.07.90
 _ZN11Syndication3RDF5ImageD2Ev@ABI_5_1 18.07.90
 _ZN11Syndication3RDF5Model12ModelPrivate9idCounterE@ABI_5_1 18.07.90
 _ZN11Syndication3RDF5Model12addStatementE14QSharedPointerINS0_8ResourceEES2_INS0_8PropertyEES2_INS0_4NodeEE@ABI_5_1 18.07.90
 _ZN11Syndication3RDF5Model13createLiteralERK7QString@ABI_5_1 18.07.90
 _ZN11Syndication3RDF5Model14createPropertyERK7QString@ABI_5_1 18.07.90
 _ZN11Syndication3RDF5Model14createResourceERK7QString@ABI_5_1 18.07.90
 _ZN11Syndication3RDF5Model14createSequenceERK7QString@ABI_5_1 18.07.90
 _ZN11Syndication3RDF5Model15removeStatementE14QSharedPointerINS0_8ResourceEES2_INS0_8PropertyEES2_INS0_4NodeEE@ABI_5_1 18.07.90
 _ZN11Syndication3RDF5Model15removeStatementE14QSharedPointerINS0_9StatementEE@ABI_5_1 18.07.90
 _ZN11Syndication3RDF5ModelC1ERKS1_@ABI_5_1 18.07.90
 _ZN11Syndication3RDF5ModelC1Ev@ABI_5_1 18.07.90
 _ZN11Syndication3RDF5ModelC2ERKS1_@ABI_5_1 18.07.90
 _ZN11Syndication3RDF5ModelC2Ev@ABI_5_1 18.07.90
 _ZN11Syndication3RDF5ModelD0Ev@ABI_5_1 18.07.90
 _ZN11Syndication3RDF5ModelD1Ev@ABI_5_1 18.07.90
 _ZN11Syndication3RDF5ModelD2Ev@ABI_5_1 18.07.90
 _ZN11Syndication3RDF5ModelaSERKS1_@ABI_5_1 18.07.90
 _ZN11Syndication3RDF6Parser13ParserPrivate14addEnumerationERK12QDomDocument@ABI_5_1 18.07.90
 _ZN11Syndication3RDF6Parser13ParserPrivate16addSequenceFor09ENS0_5ModelE@ABI_5_1 18.07.90
 _ZN11Syndication3RDF6Parser13ParserPrivate9map09to10ENS0_5ModelE@ABI_5_1 18.07.90
 _ZN11Syndication3RDF6ParserC1ERKS1_@ABI_5_1 18.07.90
 _ZN11Syndication3RDF6ParserC1Ev@ABI_5_1 18.07.90
 _ZN11Syndication3RDF6ParserC2ERKS1_@ABI_5_1 18.07.90
 _ZN11Syndication3RDF6ParserC2Ev@ABI_5_1 18.07.90
 _ZN11Syndication3RDF6ParserD0Ev@ABI_5_1 18.07.90
 _ZN11Syndication3RDF6ParserD1Ev@ABI_5_1 18.07.90
 _ZN11Syndication3RDF6ParserD2Ev@ABI_5_1 18.07.90
 _ZN11Syndication3RDF6ParseraSERKS1_@ABI_5_1 18.07.90
 _ZN11Syndication3RDF7Literal5setIdEj@ABI_5_1 18.07.90
 _ZN11Syndication3RDF7Literal6acceptEPNS0_11NodeVisitorE14QSharedPointerINS0_4NodeEE@ABI_5_1 18.07.90
 _ZN11Syndication3RDF7Literal8setModelERKNS0_5ModelE@ABI_5_1 18.07.90
 _ZN11Syndication3RDF7LiteralC1ERK7QString@ABI_5_1 18.07.90
 _ZN11Syndication3RDF7LiteralC1ERKS1_@ABI_5_1 18.07.90
 _ZN11Syndication3RDF7LiteralC1Ev@ABI_5_1 18.07.90
 _ZN11Syndication3RDF7LiteralC2ERK7QString@ABI_5_1 18.07.90
 _ZN11Syndication3RDF7LiteralC2ERKS1_@ABI_5_1 18.07.90
 _ZN11Syndication3RDF7LiteralC2Ev@ABI_5_1 18.07.90
 _ZN11Syndication3RDF7LiteralD0Ev@ABI_5_1 18.07.90
 _ZN11Syndication3RDF7LiteralD1Ev@ABI_5_1 18.07.90
 _ZN11Syndication3RDF7LiteralD2Ev@ABI_5_1 18.07.90
 _ZN11Syndication3RDF7LiteralaSERKS1_@ABI_5_1 18.07.90
 _ZN11Syndication3RDF8Document6acceptEPNS_15DocumentVisitorE@ABI_5_1 18.07.90
 _ZN11Syndication3RDF8DocumentC1E14QSharedPointerINS0_8ResourceEE@ABI_5_1 18.07.90
 _ZN11Syndication3RDF8DocumentC1ERKS1_@ABI_5_1 18.07.90
 _ZN11Syndication3RDF8DocumentC1Ev@ABI_5_1 18.07.90
 _ZN11Syndication3RDF8DocumentC2E14QSharedPointerINS0_8ResourceEE@ABI_5_1 18.07.90
 _ZN11Syndication3RDF8DocumentC2ERKS1_@ABI_5_1 18.07.90
 _ZN11Syndication3RDF8DocumentC2Ev@ABI_5_1 18.07.90
 _ZN11Syndication3RDF8DocumentD0Ev@ABI_5_1 18.07.90
 _ZN11Syndication3RDF8DocumentD1Ev@ABI_5_1 18.07.90
 _ZN11Syndication3RDF8DocumentD2Ev@ABI_5_1 18.07.90
 _ZN11Syndication3RDF8DocumentaSERKS1_@ABI_5_1 18.07.90
 _ZN11Syndication3RDF8Property6acceptEPNS0_11NodeVisitorE14QSharedPointerINS0_4NodeEE@ABI_5_1 18.07.90
 _ZN11Syndication3RDF8PropertyC1ERK7QString@ABI_5_1 18.07.90
 _ZN11Syndication3RDF8PropertyC1Ev@ABI_5_1 18.07.90
 _ZN11Syndication3RDF8PropertyC2ERK7QString@ABI_5_1 18.07.90
 _ZN11Syndication3RDF8PropertyC2Ev@ABI_5_1 18.07.90
 _ZN11Syndication3RDF8PropertyD0Ev@ABI_5_1 18.07.90
 _ZN11Syndication3RDF8PropertyD1Ev@ABI_5_1 18.07.90
 _ZN11Syndication3RDF8PropertyD2Ev@ABI_5_1 18.07.90
 _ZN11Syndication3RDF8RDFVocab12namespaceURIEv@ABI_5_1 18.07.90
 _ZN11Syndication3RDF8RDFVocab2liEv@ABI_5_1 18.07.90
 _ZN11Syndication3RDF8RDFVocab3seqEv@ABI_5_1 18.07.90
 _ZN11Syndication3RDF8RDFVocab4selfEv@ABI_5_1 18.07.90
 _ZN11Syndication3RDF8RDFVocab4typeEv@ABI_5_1 18.07.90
 _ZN11Syndication3RDF8RDFVocabC1Ev@ABI_5_1 18.07.90
 _ZN11Syndication3RDF8RDFVocabC2Ev@ABI_5_1 18.07.90
 _ZN11Syndication3RDF8RDFVocabD1Ev@ABI_5_1 18.07.90
 _ZN11Syndication3RDF8RDFVocabD2Ev@ABI_5_1 18.07.90
 _ZN11Syndication3RDF8RSSVocab15RSSVocabPrivate5sSelfE@ABI_5_1 18.07.90
 _ZN11Syndication3RDF8RSSVocab4selfEv@ABI_5_1 18.07.90
 _ZN11Syndication3RDF8RSSVocabC1Ev@ABI_5_1 18.07.90
 _ZN11Syndication3RDF8RSSVocabC2Ev@ABI_5_1 18.07.90
 _ZN11Syndication3RDF8RSSVocabD1Ev@ABI_5_1 18.07.90
 _ZN11Syndication3RDF8RSSVocabD2Ev@ABI_5_1 18.07.90
 _ZN11Syndication3RDF8Resource5setIdEj@ABI_5_1 18.07.90
 _ZN11Syndication3RDF8Resource6acceptEPNS0_11NodeVisitorE14QSharedPointerINS0_4NodeEE@ABI_5_1 18.07.90
 _ZN11Syndication3RDF8Resource8setModelERKNS0_5ModelE@ABI_5_1 18.07.90
 _ZN11Syndication3RDF8ResourceC1ERK7QString@ABI_5_1 18.07.90
 _ZN11Syndication3RDF8ResourceC1ERKS1_@ABI_5_1 18.07.90
 _ZN11Syndication3RDF8ResourceC1Ev@ABI_5_1 18.07.90
 _ZN11Syndication3RDF8ResourceC2ERK7QString@ABI_5_1 18.07.90
 _ZN11Syndication3RDF8ResourceC2ERKS1_@ABI_5_1 18.07.90
 _ZN11Syndication3RDF8ResourceC2Ev@ABI_5_1 18.07.90
 _ZN11Syndication3RDF8ResourceD0Ev@ABI_5_1 18.07.90
 _ZN11Syndication3RDF8ResourceD1Ev@ABI_5_1 18.07.90
 _ZN11Syndication3RDF8ResourceD2Ev@ABI_5_1 18.07.90
 _ZN11Syndication3RDF8ResourceaSERKS1_@ABI_5_1 18.07.90
 _ZN11Syndication3RDF8Sequence6acceptEPNS0_11NodeVisitorE14QSharedPointerINS0_4NodeEE@ABI_5_1 18.07.90
 _ZN11Syndication3RDF8Sequence6appendE14QSharedPointerINS0_4NodeEE@ABI_5_1 18.07.90
 _ZN11Syndication3RDF8SequenceC1ERK7QString@ABI_5_1 18.07.90
 _ZN11Syndication3RDF8SequenceC1ERKS1_@ABI_5_1 18.07.90
 _ZN11Syndication3RDF8SequenceC1Ev@ABI_5_1 18.07.90
 _ZN11Syndication3RDF8SequenceC2ERK7QString@ABI_5_1 18.07.90
 _ZN11Syndication3RDF8SequenceC2ERKS1_@ABI_5_1 18.07.90
 _ZN11Syndication3RDF8SequenceC2Ev@ABI_5_1 18.07.90
 _ZN11Syndication3RDF8SequenceD0Ev@ABI_5_1 18.07.90
 _ZN11Syndication3RDF8SequenceD1Ev@ABI_5_1 18.07.90
 _ZN11Syndication3RDF8SequenceD2Ev@ABI_5_1 18.07.90
 _ZN11Syndication3RDF8SequenceaSERKS1_@ABI_5_1 18.07.90
 _ZN11Syndication3RDF9StatementC1E14QSharedPointerINS0_8ResourceEES2_INS0_8PropertyEES2_INS0_4NodeEE@ABI_5_1 18.07.90
 _ZN11Syndication3RDF9StatementC1ERKS1_@ABI_5_1 18.07.90
 _ZN11Syndication3RDF9StatementC1Ev@ABI_5_1 18.07.90
 _ZN11Syndication3RDF9StatementC2E14QSharedPointerINS0_8ResourceEES2_INS0_8PropertyEES2_INS0_4NodeEE@ABI_5_1 18.07.90
 _ZN11Syndication3RDF9StatementC2ERKS1_@ABI_5_1 18.07.90
 _ZN11Syndication3RDF9StatementC2Ev@ABI_5_1 18.07.90
 _ZN11Syndication3RDF9StatementD0Ev@ABI_5_1 18.07.90
 _ZN11Syndication3RDF9StatementD1Ev@ABI_5_1 18.07.90
 _ZN11Syndication3RDF9StatementD2Ev@ABI_5_1 18.07.90
 _ZN11Syndication3RDF9StatementaSERKS1_@ABI_5_1 18.07.90
 _ZN11Syndication3RDF9TextInputC1E14QSharedPointerINS0_8ResourceEE@ABI_5_1 18.07.90
 _ZN11Syndication3RDF9TextInputC1Ev@ABI_5_1 18.07.90
 _ZN11Syndication3RDF9TextInputC2E14QSharedPointerINS0_8ResourceEE@ABI_5_1 18.07.90
 _ZN11Syndication3RDF9TextInputC2Ev@ABI_5_1 18.07.90
 _ZN11Syndication3RDF9TextInputD0Ev@ABI_5_1 18.07.90
 _ZN11Syndication3RDF9TextInputD1Ev@ABI_5_1 18.07.90
 _ZN11Syndication3RDF9TextInputD2Ev@ABI_5_1 18.07.90
 _ZN11Syndication4Atom12FeedDocument6acceptEPNS_15DocumentVisitorE@ABI_5_1 18.07.90
 _ZN11Syndication4Atom12FeedDocumentC1ERK11QDomElement@ABI_5_1 18.07.90
 _ZN11Syndication4Atom12FeedDocumentC1Ev@ABI_5_1 18.07.90
 _ZN11Syndication4Atom12FeedDocumentC2ERK11QDomElement@ABI_5_1 18.07.90
 _ZN11Syndication4Atom12FeedDocumentC2Ev@ABI_5_1 18.07.90
 _ZN11Syndication4Atom13EntryDocument6acceptEPNS_15DocumentVisitorE@ABI_5_1 18.07.90
 _ZN11Syndication4Atom13EntryDocumentC1ERK11QDomElement@ABI_5_1 18.07.90
 _ZN11Syndication4Atom13EntryDocumentC1Ev@ABI_5_1 18.07.90
 _ZN11Syndication4Atom13EntryDocumentC2ERK11QDomElement@ABI_5_1 18.07.90
 _ZN11Syndication4Atom13EntryDocumentC2Ev@ABI_5_1 18.07.90
 _ZN11Syndication4Atom14atom1NamespaceEv@ABI_5_1 18.07.90
 _ZN11Syndication4Atom16atom0_3NamespaceEv@ABI_5_1 18.07.90
 _ZN11Syndication4Atom4LinkC1ERK11QDomElement@ABI_5_1 18.07.90
 _ZN11Syndication4Atom4LinkC1Ev@ABI_5_1 18.07.90
 _ZN11Syndication4Atom4LinkC2ERK11QDomElement@ABI_5_1 18.07.90
 _ZN11Syndication4Atom4LinkC2Ev@ABI_5_1 18.07.90
 _ZN11Syndication4Atom5Entry14setFeedAuthorsERK5QListINS0_6PersonEE@ABI_5_1 18.07.90
 _ZN11Syndication4Atom5Entry6acceptEPNS_19SpecificItemVisitorE@ABI_5_1 18.07.90
 _ZN11Syndication4Atom5EntryC1ERK11QDomElement@ABI_5_1 18.07.90
 _ZN11Syndication4Atom5EntryC1Ev@ABI_5_1 18.07.90
 _ZN11Syndication4Atom5EntryC2ERK11QDomElement@ABI_5_1 18.07.90
 _ZN11Syndication4Atom5EntryC2Ev@ABI_5_1 18.07.90
 _ZN11Syndication4Atom6Parser13ParserPrivate11convertNodeER12QDomDocumentRK8QDomNodeRK5QHashI7QStringS9_E@ABI_5_1 18.07.90
 _ZN11Syndication4Atom6Parser13ParserPrivate14convertAtom0_3ERK12QDomDocument@ABI_5_1 18.07.90
 _ZN11Syndication4Atom6ParserC1ERKS1_@ABI_5_1 18.07.90
 _ZN11Syndication4Atom6ParserC1Ev@ABI_5_1 18.07.90
 _ZN11Syndication4Atom6ParserC2ERKS1_@ABI_5_1 18.07.90
 _ZN11Syndication4Atom6ParserC2Ev@ABI_5_1 18.07.90
 _ZN11Syndication4Atom6ParserD0Ev@ABI_5_1 18.07.90
 _ZN11Syndication4Atom6ParserD1Ev@ABI_5_1 18.07.90
 _ZN11Syndication4Atom6ParserD2Ev@ABI_5_1 18.07.90
 _ZN11Syndication4Atom6ParseraSERKS1_@ABI_5_1 18.07.90
 _ZN11Syndication4Atom6PersonC1ERK11QDomElement@ABI_5_1 18.07.90
 _ZN11Syndication4Atom6PersonC1Ev@ABI_5_1 18.07.90
 _ZN11Syndication4Atom6PersonC2ERK11QDomElement@ABI_5_1 18.07.90
 _ZN11Syndication4Atom6PersonC2Ev@ABI_5_1 18.07.90
 _ZN11Syndication4Atom6SourceC1ERK11QDomElement@ABI_5_1 18.07.90
 _ZN11Syndication4Atom6SourceC1Ev@ABI_5_1 18.07.90
 _ZN11Syndication4Atom6SourceC2ERK11QDomElement@ABI_5_1 18.07.90
 _ZN11Syndication4Atom6SourceC2Ev@ABI_5_1 18.07.90
 _ZN11Syndication4Atom7Content15mapTypeToFormatERK7QStringS4_@ABI_5_1 18.07.90
 _ZN11Syndication4Atom7ContentC1ERK11QDomElement@ABI_5_1 18.07.90
 _ZN11Syndication4Atom7ContentC1ERKS1_@ABI_5_1 18.07.90
 _ZN11Syndication4Atom7ContentC1Ev@ABI_5_1 18.07.90
 _ZN11Syndication4Atom7ContentC2ERK11QDomElement@ABI_5_1 18.07.90
 _ZN11Syndication4Atom7ContentC2ERKS1_@ABI_5_1 18.07.90
 _ZN11Syndication4Atom7ContentC2Ev@ABI_5_1 18.07.90
 _ZN11Syndication4Atom7ContentD0Ev@ABI_5_1 18.07.90
 _ZN11Syndication4Atom7ContentD1Ev@ABI_5_1 18.07.90
 _ZN11Syndication4Atom7ContentD2Ev@ABI_5_1 18.07.90
 _ZN11Syndication4Atom7ContentaSERKS1_@ABI_5_1 18.07.90
 _ZN11Syndication4Atom8CategoryC1ERK11QDomElement@ABI_5_1 18.07.90
 _ZN11Syndication4Atom8CategoryC1Ev@ABI_5_1 18.07.90
 _ZN11Syndication4Atom8CategoryC2ERK11QDomElement@ABI_5_1 18.07.90
 _ZN11Syndication4Atom8CategoryC2Ev@ABI_5_1 18.07.90
 _ZN11Syndication4Atom9GeneratorC1ERK11QDomElement@ABI_5_1 18.07.90
 _ZN11Syndication4Atom9GeneratorC1Ev@ABI_5_1 18.07.90
 _ZN11Syndication4Atom9GeneratorC2ERK11QDomElement@ABI_5_1 18.07.90
 _ZN11Syndication4Atom9GeneratorC2Ev@ABI_5_1 18.07.90
 _ZN11Syndication4FeedD0Ev@ABI_5_1 18.07.90
 _ZN11Syndication4FeedD1Ev@ABI_5_1 18.07.90
 _ZN11Syndication4FeedD2Ev@ABI_5_1 18.07.90
 _ZN11Syndication4ItemD0Ev@ABI_5_1 18.07.90
 _ZN11Syndication4ItemD1Ev@ABI_5_1 18.07.90
 _ZN11Syndication4ItemD2Ev@ABI_5_1 18.07.90
 _ZN11Syndication4RSS24Item6acceptEPNS_19SpecificItemVisitorE@ABI_5_1 18.07.90
 _ZN11Syndication4RSS24ItemC1E14QSharedPointerINS0_8DocumentEE@ABI_5_1 18.07.90
 _ZN11Syndication4RSS24ItemC1ERK11QDomElement14QSharedPointerINS0_8DocumentEE@ABI_5_1 18.07.90
 _ZN11Syndication4RSS24ItemC1ERKS1_@ABI_5_1 18.07.90
 _ZN11Syndication4RSS24ItemC2E14QSharedPointerINS0_8DocumentEE@ABI_5_1 18.07.90
 _ZN11Syndication4RSS24ItemC2ERK11QDomElement14QSharedPointerINS0_8DocumentEE@ABI_5_1 18.07.90
 _ZN11Syndication4RSS24ItemC2ERKS1_@ABI_5_1 18.07.90
 _ZN11Syndication4RSS24ItemD0Ev@ABI_5_1 18.07.90
 _ZN11Syndication4RSS24ItemD1Ev@ABI_5_1 18.07.90
 _ZN11Syndication4RSS24ItemD2Ev@ABI_5_1 18.07.90
 _ZN11Syndication4RSS24ItemaSERKS1_@ABI_5_1 18.07.90
 _ZN11Syndication4RSS25CloudC1ERK11QDomElement@ABI_5_1 18.07.90
 _ZN11Syndication4RSS25CloudC1Ev@ABI_5_1 18.07.90
 _ZN11Syndication4RSS25CloudC2ERK11QDomElement@ABI_5_1 18.07.90
 _ZN11Syndication4RSS25CloudC2Ev@ABI_5_1 18.07.90
 _ZN11Syndication4RSS25ImageC1ERK11QDomElement@ABI_5_1 18.07.90
 _ZN11Syndication4RSS25ImageC1Ev@ABI_5_1 18.07.90
 _ZN11Syndication4RSS25ImageC2ERK11QDomElement@ABI_5_1 18.07.90
 _ZN11Syndication4RSS25ImageC2Ev@ABI_5_1 18.07.90
 _ZN11Syndication4RSS26ParserC1ERKS1_@ABI_5_1 18.07.90
 _ZN11Syndication4RSS26ParserC1Ev@ABI_5_1 18.07.90
 _ZN11Syndication4RSS26ParserC2ERKS1_@ABI_5_1 18.07.90
 _ZN11Syndication4RSS26ParserC2Ev@ABI_5_1 18.07.90
 _ZN11Syndication4RSS26ParserD0Ev@ABI_5_1 18.07.90
 _ZN11Syndication4RSS26ParserD1Ev@ABI_5_1 18.07.90
 _ZN11Syndication4RSS26ParserD2Ev@ABI_5_1 18.07.90
 _ZN11Syndication4RSS26ParseraSERKS1_@ABI_5_1 18.07.90
 _ZN11Syndication4RSS26SourceC1ERK11QDomElement@ABI_5_1 18.07.90
 _ZN11Syndication4RSS26SourceC1Ev@ABI_5_1 18.07.90
 _ZN11Syndication4RSS26SourceC2ERK11QDomElement@ABI_5_1 18.07.90
 _ZN11Syndication4RSS26SourceC2Ev@ABI_5_1 18.07.90
 _ZN11Syndication4RSS28CategoryC1ERK11QDomElement@ABI_5_1 18.07.90
 _ZN11Syndication4RSS28CategoryC1Ev@ABI_5_1 18.07.90
 _ZN11Syndication4RSS28CategoryC2ERK11QDomElement@ABI_5_1 18.07.90
 _ZN11Syndication4RSS28CategoryC2Ev@ABI_5_1 18.07.90
 _ZN11Syndication4RSS28Document6acceptEPNS_15DocumentVisitorE@ABI_5_1 18.07.90
 _ZN11Syndication4RSS28Document7fromXMLERK12QDomDocument@ABI_5_1 18.07.90
 _ZN11Syndication4RSS28DocumentC1ERK11QDomElement@ABI_5_1 18.07.90
 _ZN11Syndication4RSS28DocumentC1ERKS1_@ABI_5_1 18.07.90
 _ZN11Syndication4RSS28DocumentC1Ev@ABI_5_1 18.07.90
 _ZN11Syndication4RSS28DocumentC2ERK11QDomElement@ABI_5_1 18.07.90
 _ZN11Syndication4RSS28DocumentC2ERKS1_@ABI_5_1 18.07.90
 _ZN11Syndication4RSS28DocumentC2Ev@ABI_5_1 18.07.90
 _ZN11Syndication4RSS28DocumentD0Ev@ABI_5_1 18.07.90
 _ZN11Syndication4RSS28DocumentD1Ev@ABI_5_1 18.07.90
 _ZN11Syndication4RSS28DocumentD2Ev@ABI_5_1 18.07.90
 _ZN11Syndication4RSS28DocumentaSERKS1_@ABI_5_1 18.07.90
 _ZN11Syndication4RSS29EnclosureC1ERK11QDomElement@ABI_5_1 18.07.90
 _ZN11Syndication4RSS29EnclosureC1Ev@ABI_5_1 18.07.90
 _ZN11Syndication4RSS29EnclosureC2ERK11QDomElement@ABI_5_1 18.07.90
 _ZN11Syndication4RSS29EnclosureC2Ev@ABI_5_1 18.07.90
 _ZN11Syndication4RSS29TextInputC1ERK11QDomElement@ABI_5_1 18.07.90
 _ZN11Syndication4RSS29TextInputC1Ev@ABI_5_1 18.07.90
 _ZN11Syndication4RSS29TextInputC2ERK11QDomElement@ABI_5_1 18.07.90
 _ZN11Syndication4RSS29TextInputC2Ev@ABI_5_1 18.07.90
 _ZN11Syndication5ImageD0Ev@ABI_5_1 18.07.90
 _ZN11Syndication5ImageD1Ev@ABI_5_1 18.07.90
 _ZN11Syndication5ImageD2Ev@ABI_5_1 18.07.90
 _ZN11Syndication5parseERKNS_14DocumentSourceERK7QString@ABI_5_1 18.07.90
 _ZN11Syndication6Loader11qt_metacallEN11QMetaObject4CallEiPPv@ABI_5_1 18.07.90
 _ZN11Syndication6Loader11qt_metacastEPKc@ABI_5_1 18.07.90
 _ZN11Syndication6Loader13discoverFeedsERK10QByteArray@ABI_5_1 18.07.90
 _ZN11Syndication6Loader15loadingCompleteEPS0_14QSharedPointerINS_4FeedEENS_9ErrorCodeE@ABI_5_1 18.07.90
 _ZN11Syndication6Loader16staticMetaObjectE@ABI_5_1 18.07.90
 _ZN11Syndication6Loader17slotRetrieverDoneERK10QByteArrayb@ABI_5_1 18.07.90
 _ZN11Syndication6Loader5abortEv@ABI_5_1 18.07.90
 _ZN11Syndication6Loader6createEP7QObjectPKc@ABI_5_1 18.07.90
 _ZN11Syndication6Loader6createEv@ABI_5_1 18.07.90
 _ZN11Syndication6Loader8loadFromERK4QUrlPNS_13DataRetrieverE@ABI_5_1 18.07.90
 _ZN11Syndication6LoaderC1Ev@ABI_5_1 18.07.90
 _ZN11Syndication6LoaderC2Ev@ABI_5_1 18.07.90
 _ZN11Syndication6LoaderD0Ev@ABI_5_1 18.07.90
 _ZN11Syndication6LoaderD1Ev@ABI_5_1 18.07.90
 _ZN11Syndication6LoaderD2Ev@ABI_5_1 18.07.90
 _ZN11Syndication6PersonD0Ev@ABI_5_1 18.07.90
 _ZN11Syndication6PersonD1Ev@ABI_5_1 18.07.90
 _ZN11Syndication6PersonD2Ev@ABI_5_1 18.07.90
 _ZN11Syndication6isHtmlERK7QString@ABI_5_1 18.07.90
 _ZN11Syndication8CategoryD0Ev@ABI_5_1 18.07.90
 _ZN11Syndication8CategoryD1Ev@ABI_5_1 18.07.90
 _ZN11Syndication8CategoryD2Ev@ABI_5_1 18.07.90
 _ZN11Syndication9EnclosureD0Ev@ABI_5_1 18.07.90
 _ZN11Syndication9EnclosureD1Ev@ABI_5_1 18.07.90
 _ZN11Syndication9EnclosureD2Ev@ABI_5_1 18.07.90
 _ZN11Syndication9normalizeERK7QString@ABI_5_1 18.07.90
 _ZN11Syndication9normalizeERK7QStringbb@ABI_5_1 18.07.90
 _ZN11Syndication9parseDateERK7QStringNS_10DateFormatE@ABI_5_1 18.07.90
 _ZNK11Syndication13DataRetriever10metaObjectEv@ABI_5_1 18.07.90
 _ZNK11Syndication14DocumentSource11asByteArrayEv@ABI_5_1 18.07.90
 _ZNK11Syndication14DocumentSource13asDomDocumentEv@ABI_5_1 18.07.90
 _ZNK11Syndication14DocumentSource3urlEv@ABI_5_1 18.07.90
 _ZNK11Syndication14DocumentSource4hashEv@ABI_5_1 18.07.90
 _ZNK11Syndication14DocumentSource4sizeEv@ABI_5_1 18.07.90
 _ZNK11Syndication14ElementWrapper11attributeNSERK7QStringS3_S3_@ABI_5_1 18.07.90
 _ZNK11Syndication14ElementWrapper11completeURIERK7QString@ABI_5_1 18.07.90
 _ZNK11Syndication14ElementWrapper12hasAttributeERK7QString@ABI_5_1 18.07.90
 _ZNK11Syndication14ElementWrapper14hasAttributeNSERK7QStringS3_@ABI_5_1 18.07.90
 _ZNK11Syndication14ElementWrapper15childNodesAsXMLEv@ABI_5_1 18.07.90
 _ZNK11Syndication14ElementWrapper17elementsByTagNameERK7QString@ABI_5_1 18.07.90
 _ZNK11Syndication14ElementWrapper18extractElementTextERK7QString@ABI_5_1 18.07.90
 _ZNK11Syndication14ElementWrapper19elementsByTagNameNSERK7QStringS3_@ABI_5_1 18.07.90
 _ZNK11Syndication14ElementWrapper20extractElementTextNSERK7QStringS3_@ABI_5_1 18.07.90
 _ZNK11Syndication14ElementWrapper23firstElementByTagNameNSERK7QStringS3_@ABI_5_1 18.07.90
 _ZNK11Syndication14ElementWrapper4textEv@ABI_5_1 18.07.90
 _ZNK11Syndication14ElementWrapper6isNullEv@ABI_5_1 18.07.90
 _ZNK11Syndication14ElementWrapper7elementEv@ABI_5_1 18.07.90
 _ZNK11Syndication14ElementWrapper7xmlBaseEv@ABI_5_1 18.07.90
 _ZNK11Syndication14ElementWrapper7xmlLangEv@ABI_5_1 18.07.90
 _ZNK11Syndication14ElementWrapper9attributeERK7QStringS3_@ABI_5_1 18.07.90
 _ZNK11Syndication14ElementWrappereqERKS0_@ABI_5_1 18.07.90
 (optional=templinst)_ZNK11Syndication20ParserCollectionImplINS_4FeedEE9lastErrorEv@ABI_5_1 18.07.90
 _ZNK11Syndication3RDF10DublinCore10identifierEv@ABI_5_1 18.07.90
 _ZNK11Syndication3RDF10DublinCore11contributorEv@ABI_5_1 18.07.90
 _ZNK11Syndication3RDF10DublinCore11descriptionEv@ABI_5_1 18.07.90
 _ZNK11Syndication3RDF10DublinCore12contributorsEv@ABI_5_1 18.07.90
 _ZNK11Syndication3RDF10DublinCore4dateEv@ABI_5_1 18.07.90
 _ZNK11Syndication3RDF10DublinCore4typeEv@ABI_5_1 18.07.90
 _ZNK11Syndication3RDF10DublinCore5titleEv@ABI_5_1 18.07.90
 _ZNK11Syndication3RDF10DublinCore6formatEv@ABI_5_1 18.07.90
 _ZNK11Syndication3RDF10DublinCore6rightsEv@ABI_5_1 18.07.90
 _ZNK11Syndication3RDF10DublinCore6sourceEv@ABI_5_1 18.07.90
 _ZNK11Syndication3RDF10DublinCore7creatorEv@ABI_5_1 18.07.90
 _ZNK11Syndication3RDF10DublinCore7subjectEv@ABI_5_1 18.07.90
 _ZNK11Syndication3RDF10DublinCore8coverageEv@ABI_5_1 18.07.90
 _ZNK11Syndication3RDF10DublinCore8creatorsEv@ABI_5_1 18.07.90
 _ZNK11Syndication3RDF10DublinCore8languageEv@ABI_5_1 18.07.90
 _ZNK11Syndication3RDF10DublinCore8relationEv@ABI_5_1 18.07.90
 _ZNK11Syndication3RDF10DublinCore8subjectsEv@ABI_5_1 18.07.90
 _ZNK11Syndication3RDF10DublinCore9debugInfoEv@ABI_5_1 18.07.90
 _ZNK11Syndication3RDF10DublinCore9publisherEv@ABI_5_1 18.07.90
 _ZNK11Syndication3RDF10RSS09Vocab10propertiesEv@ABI_5_1 18.07.90
 _ZNK11Syndication3RDF10RSS09Vocab11descriptionEv@ABI_5_1 18.07.90
 _ZNK11Syndication3RDF10RSS09Vocab12namespaceURIEv@ABI_5_1 18.07.90
 _ZNK11Syndication3RDF10RSS09Vocab3urlEv@ABI_5_1 18.07.90
 _ZNK11Syndication3RDF10RSS09Vocab4itemEv@ABI_5_1 18.07.90
 _ZNK11Syndication3RDF10RSS09Vocab4linkEv@ABI_5_1 18.07.90
 _ZNK11Syndication3RDF10RSS09Vocab4nameEv@ABI_5_1 18.07.90
 _ZNK11Syndication3RDF10RSS09Vocab5imageEv@ABI_5_1 18.07.90
 _ZNK11Syndication3RDF10RSS09Vocab5titleEv@ABI_5_1 18.07.90
 _ZNK11Syndication3RDF10RSS09Vocab7channelEv@ABI_5_1 18.07.90
 _ZNK11Syndication3RDF10RSS09Vocab7classesEv@ABI_5_1 18.07.90
 _ZNK11Syndication3RDF10RSS09Vocab9textinputEv@ABI_5_1 18.07.90
 _ZNK11Syndication3RDF12ContentVocab12namespaceURIEv@ABI_5_1 18.07.90
 _ZNK11Syndication3RDF12ContentVocab7encodedEv@ABI_5_1 18.07.90
 _ZNK11Syndication3RDF15DublinCoreVocab10identifierEv@ABI_5_1 18.07.90
 _ZNK11Syndication3RDF15DublinCoreVocab11contributorEv@ABI_5_1 18.07.90
 _ZNK11Syndication3RDF15DublinCoreVocab11descriptionEv@ABI_5_1 18.07.90
 _ZNK11Syndication3RDF15DublinCoreVocab12namespaceURIEv@ABI_5_1 18.07.90
 _ZNK11Syndication3RDF15DublinCoreVocab4dateEv@ABI_5_1 18.07.90
 _ZNK11Syndication3RDF15DublinCoreVocab4typeEv@ABI_5_1 18.07.90
 _ZNK11Syndication3RDF15DublinCoreVocab5titleEv@ABI_5_1 18.07.90
 _ZNK11Syndication3RDF15DublinCoreVocab6formatEv@ABI_5_1 18.07.90
 _ZNK11Syndication3RDF15DublinCoreVocab6rightsEv@ABI_5_1 18.07.90
 _ZNK11Syndication3RDF15DublinCoreVocab6sourceEv@ABI_5_1 18.07.90
 _ZNK11Syndication3RDF15DublinCoreVocab7creatorEv@ABI_5_1 18.07.90
 _ZNK11Syndication3RDF15DublinCoreVocab7subjectEv@ABI_5_1 18.07.90
 _ZNK11Syndication3RDF15DublinCoreVocab8coverageEv@ABI_5_1 18.07.90
 _ZNK11Syndication3RDF15DublinCoreVocab8languageEv@ABI_5_1 18.07.90
 _ZNK11Syndication3RDF15DublinCoreVocab8relationEv@ABI_5_1 18.07.90
 _ZNK11Syndication3RDF15DublinCoreVocab9publisherEv@ABI_5_1 18.07.90
 _ZNK11Syndication3RDF15ResourceWrapper6isNullEv@ABI_5_1 18.07.90
 _ZNK11Syndication3RDF15ResourceWrapper8resourceEv@ABI_5_1 18.07.90
 _ZNK11Syndication3RDF15ResourceWrappereqERKS1_@ABI_5_1 18.07.90
 _ZNK11Syndication3RDF15SyndicationInfo10updateBaseEv@ABI_5_1 18.07.90
 _ZNK11Syndication3RDF15SyndicationInfo12updatePeriodEv@ABI_5_1 18.07.90
 _ZNK11Syndication3RDF15SyndicationInfo15updateFrequencyEv@ABI_5_1 18.07.90
 _ZNK11Syndication3RDF15SyndicationInfo9debugInfoEv@ABI_5_1 18.07.90
 _ZNK11Syndication3RDF16SyndicationVocab10updateBaseEv@ABI_5_1 18.07.90
 _ZNK11Syndication3RDF16SyndicationVocab12namespaceURIEv@ABI_5_1 18.07.90
 _ZNK11Syndication3RDF16SyndicationVocab12updatePeriodEv@ABI_5_1 18.07.90
 _ZNK11Syndication3RDF16SyndicationVocab15updateFrequencyEv@ABI_5_1 18.07.90
 _ZNK11Syndication3RDF4Item11descriptionEv@ABI_5_1 18.07.90
 _ZNK11Syndication3RDF4Item13originalTitleEv@ABI_5_1 18.07.90
 _ZNK11Syndication3RDF4Item14encodedContentEv@ABI_5_1 18.07.90
 _ZNK11Syndication3RDF4Item19originalDescriptionEv@ABI_5_1 18.07.90
 _ZNK11Syndication3RDF4Item2dcEv@ABI_5_1 18.07.90
 _ZNK11Syndication3RDF4Item4linkEv@ABI_5_1 18.07.90
 _ZNK11Syndication3RDF4Item5titleEv@ABI_5_1 18.07.90
 _ZNK11Syndication3RDF4Item9debugInfoEv@ABI_5_1 18.07.90
 _ZNK11Syndication3RDF4ItemeqERKS1_@ABI_5_1 18.07.90
 _ZNK11Syndication3RDF5Image3urlEv@ABI_5_1 18.07.90
 _ZNK11Syndication3RDF5Image4linkEv@ABI_5_1 18.07.90
 _ZNK11Syndication3RDF5Image5titleEv@ABI_5_1 18.07.90
 _ZNK11Syndication3RDF5Image9debugInfoEv@ABI_5_1 18.07.90
 _ZNK11Syndication3RDF5Model10statementsEv@ABI_5_1 18.07.90
 _ZNK11Syndication3RDF5Model11literalByIDEj@ABI_5_1 18.07.90
 _ZNK11Syndication3RDF5Model12ModelPrivate11literalByIDEj@ABI_5_1 18.07.90
 _ZNK11Syndication3RDF5Model12ModelPrivate12propertyByIDEj@ABI_5_1 18.07.90
 _ZNK11Syndication3RDF5Model12ModelPrivate12resourceByIDEj@ABI_5_1 18.07.90
 _ZNK11Syndication3RDF5Model12ModelPrivate16resourcePropertyEPKNS0_8ResourceE14QSharedPointerINS0_8PropertyEE@ABI_5_1 18.07.90
 _ZNK11Syndication3RDF5Model12ModelPrivate18resourcePropertiesEPKNS0_8ResourceE14QSharedPointerINS0_8PropertyEE@ABI_5_1 18.07.90
 _ZNK11Syndication3RDF5Model12ModelPrivate19resourceHasPropertyEPKNS0_8ResourceE14QSharedPointerINS0_8PropertyEE@ABI_5_1 18.07.90
 _ZNK11Syndication3RDF5Model12ModelPrivate8nodeByIDEj@ABI_5_1 18.07.90
 _ZNK11Syndication3RDF5Model12propertyByIDEj@ABI_5_1 18.07.90
 _ZNK11Syndication3RDF5Model12resourceByIDEj@ABI_5_1 18.07.90
 _ZNK11Syndication3RDF5Model16resourcePropertyEPKNS0_8ResourceE14QSharedPointerINS0_8PropertyEE@ABI_5_1 18.07.90
 _ZNK11Syndication3RDF5Model17resourcesWithTypeE14QSharedPointerINS0_8ResourceEE@ABI_5_1 18.07.90
 _ZNK11Syndication3RDF5Model18resourcePropertiesEPKNS0_8ResourceE14QSharedPointerINS0_8PropertyEE@ABI_5_1 18.07.90
 _ZNK11Syndication3RDF5Model19resourceHasPropertyEPKNS0_8ResourceE14QSharedPointerINS0_8PropertyEE@ABI_5_1 18.07.90
 _ZNK11Syndication3RDF5Model7isEmptyEv@ABI_5_1 18.07.90
 _ZNK11Syndication3RDF5Model8nodeByIDEj@ABI_5_1 18.07.90
 _ZNK11Syndication3RDF5Model9debugInfoEv@ABI_5_1 18.07.90
 _ZNK11Syndication3RDF5ModeleqERKS1_@ABI_5_1 18.07.90
 _ZNK11Syndication3RDF6Parser5parseERKNS_14DocumentSourceE@ABI_5_1 18.07.90
 _ZNK11Syndication3RDF6Parser6acceptERKNS_14DocumentSourceE@ABI_5_1 18.07.90
 _ZNK11Syndication3RDF6Parser6formatEv@ABI_5_1 18.07.90
 _ZNK11Syndication3RDF7Literal10isPropertyEv@ABI_5_1 18.07.90
 _ZNK11Syndication3RDF7Literal10isResourceEv@ABI_5_1 18.07.90
 _ZNK11Syndication3RDF7Literal10isSequenceEv@ABI_5_1 18.07.90
 _ZNK11Syndication3RDF7Literal2idEv@ABI_5_1 18.07.90
 _ZNK11Syndication3RDF7Literal4textEv@ABI_5_1 18.07.90
 _ZNK11Syndication3RDF7Literal5cloneEv@ABI_5_1 18.07.90
 _ZNK11Syndication3RDF7Literal6isAnonEv@ABI_5_1 18.07.90
 _ZNK11Syndication3RDF7Literal6isNullEv@ABI_5_1 18.07.90
 _ZNK11Syndication3RDF7Literal9isLiteralEv@ABI_5_1 18.07.90
 _ZNK11Syndication3RDF7Literalcv7QStringEv@ABI_5_1 18.07.90
 _ZNK11Syndication3RDF7LiteraleqERKNS0_4NodeE@ABI_5_1 18.07.90
 _ZNK11Syndication3RDF8Document11descriptionEv@ABI_5_1 18.07.90
 _ZNK11Syndication3RDF8Document22getItemTitleFormatInfoEPb@ABI_5_1 18.07.90
 _ZNK11Syndication3RDF8Document28getItemDescriptionFormatInfoEPb@ABI_5_1 18.07.90
 _ZNK11Syndication3RDF8Document2dcEv@ABI_5_1 18.07.90
 _ZNK11Syndication3RDF8Document3synEv@ABI_5_1 18.07.90
 _ZNK11Syndication3RDF8Document4linkEv@ABI_5_1 18.07.90
 _ZNK11Syndication3RDF8Document5imageEv@ABI_5_1 18.07.90
 _ZNK11Syndication3RDF8Document5itemsEv@ABI_5_1 18.07.90
 _ZNK11Syndication3RDF8Document5titleEv@ABI_5_1 18.07.90
 _ZNK11Syndication3RDF8Document7isValidEv@ABI_5_1 18.07.90
 _ZNK11Syndication3RDF8Document9debugInfoEv@ABI_5_1 18.07.90
 _ZNK11Syndication3RDF8Document9textInputEv@ABI_5_1 18.07.90
 _ZNK11Syndication3RDF8DocumenteqERKS1_@ABI_5_1 18.07.90
 _ZNK11Syndication3RDF8Property10isPropertyEv@ABI_5_1 18.07.90
 _ZNK11Syndication3RDF8Property5cloneEv@ABI_5_1 18.07.90
 _ZNK11Syndication3RDF8RSSVocab11descriptionEv@ABI_5_1 18.07.90
 _ZNK11Syndication3RDF8RSSVocab12namespaceURIEv@ABI_5_1 18.07.90
 _ZNK11Syndication3RDF8RSSVocab3urlEv@ABI_5_1 18.07.90
 _ZNK11Syndication3RDF8RSSVocab4itemEv@ABI_5_1 18.07.90
 _ZNK11Syndication3RDF8RSSVocab4linkEv@ABI_5_1 18.07.90
 _ZNK11Syndication3RDF8RSSVocab4nameEv@ABI_5_1 18.07.90
 _ZNK11Syndication3RDF8RSSVocab5imageEv@ABI_5_1 18.07.90
 _ZNK11Syndication3RDF8RSSVocab5itemsEv@ABI_5_1 18.07.90
 _ZNK11Syndication3RDF8RSSVocab5titleEv@ABI_5_1 18.07.90
 _ZNK11Syndication3RDF8RSSVocab7channelEv@ABI_5_1 18.07.90
 _ZNK11Syndication3RDF8RSSVocab9textinputEv@ABI_5_1 18.07.90
 _ZNK11Syndication3RDF8Resource10isPropertyEv@ABI_5_1 18.07.90
 _ZNK11Syndication3RDF8Resource10isResourceEv@ABI_5_1 18.07.90
 _ZNK11Syndication3RDF8Resource10isSequenceEv@ABI_5_1 18.07.90
 _ZNK11Syndication3RDF8Resource10propertiesE14QSharedPointerINS0_8PropertyEE@ABI_5_1 18.07.90
 _ZNK11Syndication3RDF8Resource11hasPropertyE14QSharedPointerINS0_8PropertyEE@ABI_5_1 18.07.90
 _ZNK11Syndication3RDF8Resource2idEv@ABI_5_1 18.07.90
 _ZNK11Syndication3RDF8Resource3uriEv@ABI_5_1 18.07.90
 _ZNK11Syndication3RDF8Resource4textEv@ABI_5_1 18.07.90
 _ZNK11Syndication3RDF8Resource5cloneEv@ABI_5_1 18.07.90
 _ZNK11Syndication3RDF8Resource5modelEv@ABI_5_1 18.07.90
 _ZNK11Syndication3RDF8Resource6isAnonEv@ABI_5_1 18.07.90
 _ZNK11Syndication3RDF8Resource6isNullEv@ABI_5_1 18.07.90
 _ZNK11Syndication3RDF8Resource8propertyE14QSharedPointerINS0_8PropertyEE@ABI_5_1 18.07.90
 _ZNK11Syndication3RDF8Resource9isLiteralEv@ABI_5_1 18.07.90
 _ZNK11Syndication3RDF8ResourceeqERKNS0_4NodeE@ABI_5_1 18.07.90
 _ZNK11Syndication3RDF8Sequence10isSequenceEv@ABI_5_1 18.07.90
 _ZNK11Syndication3RDF8Sequence5cloneEv@ABI_5_1 18.07.90
 _ZNK11Syndication3RDF8Sequence5itemsEv@ABI_5_1 18.07.90
 _ZNK11Syndication3RDF9Statement10asResourceEv@ABI_5_1 18.07.90
 _ZNK11Syndication3RDF9Statement6isNullEv@ABI_5_1 18.07.90
 _ZNK11Syndication3RDF9Statement6objectEv@ABI_5_1 18.07.90
 _ZNK11Syndication3RDF9Statement7subjectEv@ABI_5_1 18.07.90
 _ZNK11Syndication3RDF9Statement8asStringEv@ABI_5_1 18.07.90
 _ZNK11Syndication3RDF9Statement9predicateEv@ABI_5_1 18.07.90
 _ZNK11Syndication3RDF9StatementeqERKS1_@ABI_5_1 18.07.90
 _ZNK11Syndication3RDF9TextInput11descriptionEv@ABI_5_1 18.07.90
 _ZNK11Syndication3RDF9TextInput4linkEv@ABI_5_1 18.07.90
 _ZNK11Syndication3RDF9TextInput4nameEv@ABI_5_1 18.07.90
 _ZNK11Syndication3RDF9TextInput5titleEv@ABI_5_1 18.07.90
 _ZNK11Syndication3RDF9TextInput9debugInfoEv@ABI_5_1 18.07.90
 _ZNK11Syndication4Atom12FeedDocument10categoriesEv@ABI_5_1 18.07.90
 _ZNK11Syndication4Atom12FeedDocument12contributorsEv@ABI_5_1 18.07.90
 _ZNK11Syndication4Atom12FeedDocument17unhandledElementsEv@ABI_5_1 18.07.90
 _ZNK11Syndication4Atom12FeedDocument2idEv@ABI_5_1 18.07.90
 _ZNK11Syndication4Atom12FeedDocument4iconEv@ABI_5_1 18.07.90
 _ZNK11Syndication4Atom12FeedDocument4logoEv@ABI_5_1 18.07.90
 _ZNK11Syndication4Atom12FeedDocument5linksEv@ABI_5_1 18.07.90
 _ZNK11Syndication4Atom12FeedDocument5titleEv@ABI_5_1 18.07.90
 _ZNK11Syndication4Atom12FeedDocument6rightsEv@ABI_5_1 18.07.90
 _ZNK11Syndication4Atom12FeedDocument7authorsEv@ABI_5_1 18.07.90
 _ZNK11Syndication4Atom12FeedDocument7entriesEv@ABI_5_1 18.07.90
 _ZNK11Syndication4Atom12FeedDocument7isValidEv@ABI_5_1 18.07.90
 _ZNK11Syndication4Atom12FeedDocument7updatedEv@ABI_5_1 18.07.90
 _ZNK11Syndication4Atom12FeedDocument8subtitleEv@ABI_5_1 18.07.90
 _ZNK11Syndication4Atom12FeedDocument9debugInfoEv@ABI_5_1 18.07.90
 _ZNK11Syndication4Atom12FeedDocument9generatorEv@ABI_5_1 18.07.90
 _ZNK11Syndication4Atom13EntryDocument5entryEv@ABI_5_1 18.07.90
 _ZNK11Syndication4Atom13EntryDocument7isValidEv@ABI_5_1 18.07.90
 _ZNK11Syndication4Atom13EntryDocument9debugInfoEv@ABI_5_1 18.07.90
 _ZNK11Syndication4Atom4Link12hrefLanguageEv@ABI_5_1 18.07.90
 _ZNK11Syndication4Atom4Link3relEv@ABI_5_1 18.07.90
 _ZNK11Syndication4Atom4Link4hrefEv@ABI_5_1 18.07.90
 _ZNK11Syndication4Atom4Link4typeEv@ABI_5_1 18.07.90
 _ZNK11Syndication4Atom4Link5titleEv@ABI_5_1 18.07.90
 _ZNK11Syndication4Atom4Link6lengthEv@ABI_5_1 18.07.90
 _ZNK11Syndication4Atom4Link9debugInfoEv@ABI_5_1 18.07.90
 _ZNK11Syndication4Atom5Entry10categoriesEv@ABI_5_1 18.07.90
 _ZNK11Syndication4Atom5Entry12contributorsEv@ABI_5_1 18.07.90
 _ZNK11Syndication4Atom5Entry17unhandledElementsEv@ABI_5_1 18.07.90
 _ZNK11Syndication4Atom5Entry2idEv@ABI_5_1 18.07.90
 _ZNK11Syndication4Atom5Entry5linksEv@ABI_5_1 18.07.90
 _ZNK11Syndication4Atom5Entry5titleEv@ABI_5_1 18.07.90
 _ZNK11Syndication4Atom5Entry6rightsEv@ABI_5_1 18.07.90
 _ZNK11Syndication4Atom5Entry6sourceEv@ABI_5_1 18.07.90
 _ZNK11Syndication4Atom5Entry7authorsEv@ABI_5_1 18.07.90
 _ZNK11Syndication4Atom5Entry7contentEv@ABI_5_1 18.07.90
 _ZNK11Syndication4Atom5Entry7summaryEv@ABI_5_1 18.07.90
 _ZNK11Syndication4Atom5Entry7updatedEv@ABI_5_1 18.07.90
 _ZNK11Syndication4Atom5Entry9debugInfoEv@ABI_5_1 18.07.90
 _ZNK11Syndication4Atom5Entry9publishedEv@ABI_5_1 18.07.90
 _ZNK11Syndication4Atom6Parser5parseERKNS_14DocumentSourceE@ABI_5_1 18.07.90
 _ZNK11Syndication4Atom6Parser6acceptERKNS_14DocumentSourceE@ABI_5_1 18.07.90
 _ZNK11Syndication4Atom6Parser6formatEv@ABI_5_1 18.07.90
 _ZNK11Syndication4Atom6Person3uriEv@ABI_5_1 18.07.90
 _ZNK11Syndication4Atom6Person4nameEv@ABI_5_1 18.07.90
 _ZNK11Syndication4Atom6Person5emailEv@ABI_5_1 18.07.90
 _ZNK11Syndication4Atom6Person9debugInfoEv@ABI_5_1 18.07.90
 _ZNK11Syndication4Atom6Source10categoriesEv@ABI_5_1 18.07.90
 _ZNK11Syndication4Atom6Source12contributorsEv@ABI_5_1 18.07.90
 _ZNK11Syndication4Atom6Source2idEv@ABI_5_1 18.07.90
 _ZNK11Syndication4Atom6Source4iconEv@ABI_5_1 18.07.90
 _ZNK11Syndication4Atom6Source4logoEv@ABI_5_1 18.07.90
 _ZNK11Syndication4Atom6Source5linksEv@ABI_5_1 18.07.90
 _ZNK11Syndication4Atom6Source5titleEv@ABI_5_1 18.07.90
 _ZNK11Syndication4Atom6Source6rightsEv@ABI_5_1 18.07.90
 _ZNK11Syndication4Atom6Source7authorsEv@ABI_5_1 18.07.90
 _ZNK11Syndication4Atom6Source7updatedEv@ABI_5_1 18.07.90
 _ZNK11Syndication4Atom6Source8subtitleEv@ABI_5_1 18.07.90
 _ZNK11Syndication4Atom6Source9debugInfoEv@ABI_5_1 18.07.90
 _ZNK11Syndication4Atom6Source9generatorEv@ABI_5_1 18.07.90
 _ZNK11Syndication4Atom7Content11asByteArrayEv@ABI_5_1 18.07.90
 _ZNK11Syndication4Atom7Content11isContainedEv@ABI_5_1 18.07.90
 _ZNK11Syndication4Atom7Content11isPlainTextEv@ABI_5_1 18.07.90
 _ZNK11Syndication4Atom7Content13isEscapedHTMLEv@ABI_5_1 18.07.90
 _ZNK11Syndication4Atom7Content3srcEv@ABI_5_1 18.07.90
 _ZNK11Syndication4Atom7Content4typeEv@ABI_5_1 18.07.90
 _ZNK11Syndication4Atom7Content5isXMLEv@ABI_5_1 18.07.90
 _ZNK11Syndication4Atom7Content6formatEv@ABI_5_1 18.07.90
 _ZNK11Syndication4Atom7Content8asStringEv@ABI_5_1 18.07.90
 _ZNK11Syndication4Atom7Content8isBinaryEv@ABI_5_1 18.07.90
 _ZNK11Syndication4Atom7Content9debugInfoEv@ABI_5_1 18.07.90
 _ZNK11Syndication4Atom8Category4termEv@ABI_5_1 18.07.90
 _ZNK11Syndication4Atom8Category5labelEv@ABI_5_1 18.07.90
 _ZNK11Syndication4Atom8Category6schemeEv@ABI_5_1 18.07.90
 _ZNK11Syndication4Atom8Category9debugInfoEv@ABI_5_1 18.07.90
 _ZNK11Syndication4Atom9Generator3uriEv@ABI_5_1 18.07.90
 _ZNK11Syndication4Atom9Generator4nameEv@ABI_5_1 18.07.90
 _ZNK11Syndication4Atom9Generator7versionEv@ABI_5_1 18.07.90
 _ZNK11Syndication4Atom9Generator9debugInfoEv@ABI_5_1 18.07.90
 _ZNK11Syndication4Feed9debugInfoEv@ABI_5_1 18.07.90
 _ZNK11Syndication4Item9debugInfoEv@ABI_5_1 18.07.90
 _ZNK11Syndication4RSS24Item10categoriesEv@ABI_5_1 18.07.90
 _ZNK11Syndication4RSS24Item10enclosuresEv@ABI_5_1 18.07.90
 _ZNK11Syndication4RSS24Item11descriptionEv@ABI_5_1 18.07.90
 _ZNK11Syndication4RSS24Item13originalTitleEv@ABI_5_1 18.07.90
 _ZNK11Syndication4RSS24Item14expirationDateEv@ABI_5_1 18.07.90
 _ZNK11Syndication4RSS24Item15guidIsPermaLinkEv@ABI_5_1 18.07.90
 _ZNK11Syndication4RSS24Item17unhandledElementsEv@ABI_5_1 18.07.90
 _ZNK11Syndication4RSS24Item19originalDescriptionEv@ABI_5_1 18.07.90
 _ZNK11Syndication4RSS24Item4guidEv@ABI_5_1 18.07.90
 _ZNK11Syndication4RSS24Item4linkEv@ABI_5_1 18.07.90
 _ZNK11Syndication4RSS24Item5titleEv@ABI_5_1 18.07.90
 _ZNK11Syndication4RSS24Item6authorEv@ABI_5_1 18.07.90
 _ZNK11Syndication4RSS24Item6ratingEv@ABI_5_1 18.07.90
 _ZNK11Syndication4RSS24Item6sourceEv@ABI_5_1 18.07.90
 _ZNK11Syndication4RSS24Item7contentEv@ABI_5_1 18.07.90
 _ZNK11Syndication4RSS24Item7pubDateEv@ABI_5_1 18.07.90
 _ZNK11Syndication4RSS24Item8commentsEv@ABI_5_1 18.07.90
 _ZNK11Syndication4RSS24Item9debugInfoEv@ABI_5_1 18.07.90
 _ZNK11Syndication4RSS25Cloud17registerProcedureEv@ABI_5_1 18.07.90
 _ZNK11Syndication4RSS25Cloud4pathEv@ABI_5_1 18.07.90
 _ZNK11Syndication4RSS25Cloud4portEv@ABI_5_1 18.07.90
 _ZNK11Syndication4RSS25Cloud6domainEv@ABI_5_1 18.07.90
 _ZNK11Syndication4RSS25Cloud8protocolEv@ABI_5_1 18.07.90
 _ZNK11Syndication4RSS25Cloud9debugInfoEv@ABI_5_1 18.07.90
 _ZNK11Syndication4RSS25Image11descriptionEv@ABI_5_1 18.07.90
 _ZNK11Syndication4RSS25Image3urlEv@ABI_5_1 18.07.90
 _ZNK11Syndication4RSS25Image4linkEv@ABI_5_1 18.07.90
 _ZNK11Syndication4RSS25Image5titleEv@ABI_5_1 18.07.90
 _ZNK11Syndication4RSS25Image5widthEv@ABI_5_1 18.07.90
 _ZNK11Syndication4RSS25Image6heightEv@ABI_5_1 18.07.90
 _ZNK11Syndication4RSS25Image9debugInfoEv@ABI_5_1 18.07.90
 _ZNK11Syndication4RSS26Parser5parseERKNS_14DocumentSourceE@ABI_5_1 18.07.90
 _ZNK11Syndication4RSS26Parser6acceptERKNS_14DocumentSourceE@ABI_5_1 18.07.90
 _ZNK11Syndication4RSS26Parser6formatEv@ABI_5_1 18.07.90
 _ZNK11Syndication4RSS26Source3urlEv@ABI_5_1 18.07.90
 _ZNK11Syndication4RSS26Source6sourceEv@ABI_5_1 18.07.90
 _ZNK11Syndication4RSS26Source9debugInfoEv@ABI_5_1 18.07.90
 _ZNK11Syndication4RSS28Category6domainEv@ABI_5_1 18.07.90
 _ZNK11Syndication4RSS28Category8categoryEv@ABI_5_1 18.07.90
 _ZNK11Syndication4RSS28Category9debugInfoEv@ABI_5_1 18.07.90
 _ZNK11Syndication4RSS28Document10categoriesEv@ABI_5_1 18.07.90
 _ZNK11Syndication4RSS28Document11descriptionEv@ABI_5_1 18.07.90
 _ZNK11Syndication4RSS28Document13lastBuildDateEv@ABI_5_1 18.07.90
 _ZNK11Syndication4RSS28Document14managingEditorEv@ABI_5_1 18.07.90
 _ZNK11Syndication4RSS28Document17unhandledElementsEv@ABI_5_1 18.07.90
 _ZNK11Syndication4RSS28Document22getItemTitleFormatInfoEPbS2_@ABI_5_1 18.07.90
 _ZNK11Syndication4RSS28Document28getItemDescriptionFormatInfoEPbS2_@ABI_5_1 18.07.90
 _ZNK11Syndication4RSS28Document3ttlEv@ABI_5_1 18.07.90
 _ZNK11Syndication4RSS28Document4docsEv@ABI_5_1 18.07.90
 _ZNK11Syndication4RSS28Document4linkEv@ABI_5_1 18.07.90
 _ZNK11Syndication4RSS28Document5cloudEv@ABI_5_1 18.07.90
 _ZNK11Syndication4RSS28Document5imageEv@ABI_5_1 18.07.90
 _ZNK11Syndication4RSS28Document5itemsEv@ABI_5_1 18.07.90
 _ZNK11Syndication4RSS28Document5titleEv@ABI_5_1 18.07.90
 _ZNK11Syndication4RSS28Document7isValidEv@ABI_5_1 18.07.90
 _ZNK11Syndication4RSS28Document7pubDateEv@ABI_5_1 18.07.90
 _ZNK11Syndication4RSS28Document8languageEv@ABI_5_1 18.07.90
 _ZNK11Syndication4RSS28Document8skipDaysEv@ABI_5_1 18.07.90
 _ZNK11Syndication4RSS28Document9copyrightEv@ABI_5_1 18.07.90
 _ZNK11Syndication4RSS28Document9debugInfoEv@ABI_5_1 18.07.90
 _ZNK11Syndication4RSS28Document9generatorEv@ABI_5_1 18.07.90
 _ZNK11Syndication4RSS28Document9skipHoursEv@ABI_5_1 18.07.90
 _ZNK11Syndication4RSS28Document9textInputEv@ABI_5_1 18.07.90
 _ZNK11Syndication4RSS28Document9webMasterEv@ABI_5_1 18.07.90
 _ZNK11Syndication4RSS29Enclosure3urlEv@ABI_5_1 18.07.90
 _ZNK11Syndication4RSS29Enclosure4typeEv@ABI_5_1 18.07.90
 _ZNK11Syndication4RSS29Enclosure6lengthEv@ABI_5_1 18.07.90
 _ZNK11Syndication4RSS29Enclosure9debugInfoEv@ABI_5_1 18.07.90
 _ZNK11Syndication4RSS29TextInput11descriptionEv@ABI_5_1 18.07.90
 _ZNK11Syndication4RSS29TextInput4linkEv@ABI_5_1 18.07.90
 _ZNK11Syndication4RSS29TextInput4nameEv@ABI_5_1 18.07.90
 _ZNK11Syndication4RSS29TextInput5titleEv@ABI_5_1 18.07.90
 _ZNK11Syndication4RSS29TextInput9debugInfoEv@ABI_5_1 18.07.90
 _ZNK11Syndication5Image9debugInfoEv@ABI_5_1 18.07.90
 _ZNK11Syndication6Loader10metaObjectEv@ABI_5_1 18.07.90
 _ZNK11Syndication6Loader14retrieverErrorEv@ABI_5_1 18.07.90
 _ZNK11Syndication6Loader17discoveredFeedURLEv@ABI_5_1 18.07.90
 _ZNK11Syndication6Loader9errorCodeEv@ABI_5_1 18.07.90
 _ZNK11Syndication6Person9debugInfoEv@ABI_5_1 18.07.90
 _ZNK11Syndication6PersoneqERKS0_@ABI_5_1 18.07.90
 _ZNK11Syndication8Category9debugInfoEv@ABI_5_1 18.07.90
 _ZNK11Syndication9Enclosure9debugInfoEv@ABI_5_1 18.07.90
 _ZTIN11Syndication10PersonImplE@ABI_5_1 18.07.90
 _ZTIN11Syndication12SpecificItemE@ABI_5_1 18.07.90
 _ZTIN11Syndication13DataRetrieverE@ABI_5_1 18.07.90
 _ZTIN11Syndication14AbstractParserE@ABI_5_1 18.07.90
 _ZTIN11Syndication14ElementWrapperE@ABI_5_1 18.07.90
 _ZTIN11Syndication15DocumentVisitorE@ABI_5_1 18.07.90
 _ZTIN11Syndication16ParserCollectionINS_4FeedEEE@ABI_5_1 18.07.90
 _ZTIN11Syndication16SpecificDocumentE@ABI_5_1 18.07.90
 _ZTIN11Syndication19SpecificItemVisitorE@ABI_5_1 18.07.90
 _ZTIN11Syndication20ParserCollectionImplINS_4FeedEEE@ABI_5_1 18.07.90
 _ZTIN11Syndication3RDF10DublinCoreE@ABI_5_1 18.07.90
 _ZTIN11Syndication3RDF11NodeVisitorE@ABI_5_1 18.07.90
 _ZTIN11Syndication3RDF15ResourceWrapperE@ABI_5_1 18.07.90
 _ZTIN11Syndication3RDF15SyndicationInfoE@ABI_5_1 18.07.90
 _ZTIN11Syndication3RDF4ItemE@ABI_5_1 18.07.90
 _ZTIN11Syndication3RDF4NodeE@ABI_5_1 18.07.90
 _ZTIN11Syndication3RDF5ImageE@ABI_5_1 18.07.90
 _ZTIN11Syndication3RDF5Model12ModelPrivate18AddToHashesVisitorE@ABI_5_1 18.07.90
 _ZTIN11Syndication3RDF5ModelE@ABI_5_1 18.07.90
 _ZTIN11Syndication3RDF6ParserE@ABI_5_1 18.07.90
 _ZTIN11Syndication3RDF7LiteralE@ABI_5_1 18.07.90
 _ZTIN11Syndication3RDF8DocumentE@ABI_5_1 18.07.90
 _ZTIN11Syndication3RDF8PropertyE@ABI_5_1 18.07.90
 _ZTIN11Syndication3RDF8ResourceE@ABI_5_1 18.07.90
 _ZTIN11Syndication3RDF8SequenceE@ABI_5_1 18.07.90
 _ZTIN11Syndication3RDF9StatementE@ABI_5_1 18.07.90
 _ZTIN11Syndication3RDF9TextInputE@ABI_5_1 18.07.90
 _ZTIN11Syndication4Atom12FeedDocumentE@ABI_5_1 18.07.90
 _ZTIN11Syndication4Atom13EntryDocumentE@ABI_5_1 18.07.90
 _ZTIN11Syndication4Atom4LinkE@ABI_5_1 18.07.90
 _ZTIN11Syndication4Atom5EntryE@ABI_5_1 18.07.90
 _ZTIN11Syndication4Atom6ParserE@ABI_5_1 18.07.90
 _ZTIN11Syndication4Atom6PersonE@ABI_5_1 18.07.90
 _ZTIN11Syndication4Atom6SourceE@ABI_5_1 18.07.90
 _ZTIN11Syndication4Atom7ContentE@ABI_5_1 18.07.90
 _ZTIN11Syndication4Atom8CategoryE@ABI_5_1 18.07.90
 _ZTIN11Syndication4Atom9GeneratorE@ABI_5_1 18.07.90
 _ZTIN11Syndication4FeedE@ABI_5_1 18.07.90
 _ZTIN11Syndication4ItemE@ABI_5_1 18.07.90
 _ZTIN11Syndication4RSS24ItemE@ABI_5_1 18.07.90
 _ZTIN11Syndication4RSS25CloudE@ABI_5_1 18.07.90
 _ZTIN11Syndication4RSS25ImageE@ABI_5_1 18.07.90
 _ZTIN11Syndication4RSS26ParserE@ABI_5_1 18.07.90
 _ZTIN11Syndication4RSS26SourceE@ABI_5_1 18.07.90
 _ZTIN11Syndication4RSS28CategoryE@ABI_5_1 18.07.90
 _ZTIN11Syndication4RSS28DocumentE@ABI_5_1 18.07.90
 _ZTIN11Syndication4RSS29EnclosureE@ABI_5_1 18.07.90
 _ZTIN11Syndication4RSS29TextInputE@ABI_5_1 18.07.90
 _ZTIN11Syndication5ImageE@ABI_5_1 18.07.90
 _ZTIN11Syndication6LoaderE@ABI_5_1 18.07.90
 _ZTIN11Syndication6MapperINS_4FeedEEE@ABI_5_1 18.07.90
 _ZTIN11Syndication6PersonE@ABI_5_1 18.07.90
 _ZTIN11Syndication8CategoryE@ABI_5_1 18.07.90
 _ZTIN11Syndication9EnclosureE@ABI_5_1 18.07.90
 _ZTSN11Syndication10PersonImplE@ABI_5_1 18.07.90
 _ZTSN11Syndication12SpecificItemE@ABI_5_1 18.07.90
 _ZTSN11Syndication13DataRetrieverE@ABI_5_1 18.07.90
 _ZTSN11Syndication14AbstractParserE@ABI_5_1 18.07.90
 _ZTSN11Syndication14ElementWrapperE@ABI_5_1 18.07.90
 _ZTSN11Syndication15DocumentVisitorE@ABI_5_1 18.07.90
 _ZTSN11Syndication16ParserCollectionINS_4FeedEEE@ABI_5_1 18.07.90
 _ZTSN11Syndication16SpecificDocumentE@ABI_5_1 18.07.90
 _ZTSN11Syndication19SpecificItemVisitorE@ABI_5_1 18.07.90
 _ZTSN11Syndication20ParserCollectionImplINS_4FeedEEE@ABI_5_1 18.07.90
 _ZTSN11Syndication3RDF10DublinCoreE@ABI_5_1 18.07.90
 _ZTSN11Syndication3RDF11NodeVisitorE@ABI_5_1 18.07.90
 _ZTSN11Syndication3RDF15ResourceWrapperE@ABI_5_1 18.07.90
 _ZTSN11Syndication3RDF15SyndicationInfoE@ABI_5_1 18.07.90
 _ZTSN11Syndication3RDF4ItemE@ABI_5_1 18.07.90
 _ZTSN11Syndication3RDF4NodeE@ABI_5_1 18.07.90
 _ZTSN11Syndication3RDF5ImageE@ABI_5_1 18.07.90
 _ZTSN11Syndication3RDF5Model12ModelPrivate18AddToHashesVisitorE@ABI_5_1 18.07.90
 _ZTSN11Syndication3RDF5ModelE@ABI_5_1 18.07.90
 _ZTSN11Syndication3RDF6ParserE@ABI_5_1 18.07.90
 _ZTSN11Syndication3RDF7LiteralE@ABI_5_1 18.07.90
 _ZTSN11Syndication3RDF8DocumentE@ABI_5_1 18.07.90
 _ZTSN11Syndication3RDF8PropertyE@ABI_5_1 18.07.90
 _ZTSN11Syndication3RDF8ResourceE@ABI_5_1 18.07.90
 _ZTSN11Syndication3RDF8SequenceE@ABI_5_1 18.07.90
 _ZTSN11Syndication3RDF9StatementE@ABI_5_1 18.07.90
 _ZTSN11Syndication3RDF9TextInputE@ABI_5_1 18.07.90
 _ZTSN11Syndication4Atom12FeedDocumentE@ABI_5_1 18.07.90
 _ZTSN11Syndication4Atom13EntryDocumentE@ABI_5_1 18.07.90
 _ZTSN11Syndication4Atom4LinkE@ABI_5_1 18.07.90
 _ZTSN11Syndication4Atom5EntryE@ABI_5_1 18.07.90
 _ZTSN11Syndication4Atom6ParserE@ABI_5_1 18.07.90
 _ZTSN11Syndication4Atom6PersonE@ABI_5_1 18.07.90
 _ZTSN11Syndication4Atom6SourceE@ABI_5_1 18.07.90
 _ZTSN11Syndication4Atom7ContentE@ABI_5_1 18.07.90
 _ZTSN11Syndication4Atom8CategoryE@ABI_5_1 18.07.90
 _ZTSN11Syndication4Atom9GeneratorE@ABI_5_1 18.07.90
 _ZTSN11Syndication4FeedE@ABI_5_1 18.07.90
 _ZTSN11Syndication4ItemE@ABI_5_1 18.07.90
 _ZTSN11Syndication4RSS24ItemE@ABI_5_1 18.07.90
 _ZTSN11Syndication4RSS25CloudE@ABI_5_1 18.07.90
 _ZTSN11Syndication4RSS25ImageE@ABI_5_1 18.07.90
 _ZTSN11Syndication4RSS26ParserE@ABI_5_1 18.07.90
 _ZTSN11Syndication4RSS26SourceE@ABI_5_1 18.07.90
 _ZTSN11Syndication4RSS28CategoryE@ABI_5_1 18.07.90
 _ZTSN11Syndication4RSS28DocumentE@ABI_5_1 18.07.90
 _ZTSN11Syndication4RSS29EnclosureE@ABI_5_1 18.07.90
 _ZTSN11Syndication4RSS29TextInputE@ABI_5_1 18.07.90
 _ZTSN11Syndication5ImageE@ABI_5_1 18.07.90
 _ZTSN11Syndication6LoaderE@ABI_5_1 18.07.90
 _ZTSN11Syndication6MapperINS_4FeedEEE@ABI_5_1 18.07.90
 _ZTSN11Syndication6PersonE@ABI_5_1 18.07.90
 _ZTSN11Syndication8CategoryE@ABI_5_1 18.07.90
 _ZTSN11Syndication9EnclosureE@ABI_5_1 18.07.90
 _ZTVN11Syndication10PersonImplE@ABI_5_1 18.07.90
 _ZTVN11Syndication12SpecificItemE@ABI_5_1 18.07.90
 _ZTVN11Syndication13DataRetrieverE@ABI_5_1 18.07.90
 _ZTVN11Syndication14AbstractParserE@ABI_5_1 18.07.90
 _ZTVN11Syndication14ElementWrapperE@ABI_5_1 18.07.90
 _ZTVN11Syndication15DocumentVisitorE@ABI_5_1 18.07.90
 _ZTVN11Syndication16SpecificDocumentE@ABI_5_1 18.07.90
 _ZTVN11Syndication19SpecificItemVisitorE@ABI_5_1 18.07.90
 _ZTVN11Syndication20ParserCollectionImplINS_4FeedEEE@ABI_5_1 18.07.90
 _ZTVN11Syndication3RDF10DublinCoreE@ABI_5_1 18.07.90
 _ZTVN11Syndication3RDF11NodeVisitorE@ABI_5_1 18.07.90
 _ZTVN11Syndication3RDF15ResourceWrapperE@ABI_5_1 18.07.90
 _ZTVN11Syndication3RDF15SyndicationInfoE@ABI_5_1 18.07.90
 _ZTVN11Syndication3RDF4ItemE@ABI_5_1 18.07.90
 _ZTVN11Syndication3RDF4NodeE@ABI_5_1 18.07.90
 _ZTVN11Syndication3RDF5ImageE@ABI_5_1 18.07.90
 _ZTVN11Syndication3RDF5Model12ModelPrivate18AddToHashesVisitorE@ABI_5_1 18.07.90
 _ZTVN11Syndication3RDF5ModelE@ABI_5_1 18.07.90
 _ZTVN11Syndication3RDF6ParserE@ABI_5_1 18.07.90
 _ZTVN11Syndication3RDF7LiteralE@ABI_5_1 18.07.90
 _ZTVN11Syndication3RDF8DocumentE@ABI_5_1 18.07.90
 _ZTVN11Syndication3RDF8PropertyE@ABI_5_1 18.07.90
 _ZTVN11Syndication3RDF8ResourceE@ABI_5_1 18.07.90
 _ZTVN11Syndication3RDF8SequenceE@ABI_5_1 18.07.90
 _ZTVN11Syndication3RDF9StatementE@ABI_5_1 18.07.90
 _ZTVN11Syndication3RDF9TextInputE@ABI_5_1 18.07.90
 _ZTVN11Syndication4Atom12FeedDocumentE@ABI_5_1 18.07.90
 _ZTVN11Syndication4Atom13EntryDocumentE@ABI_5_1 18.07.90
 _ZTVN11Syndication4Atom4LinkE@ABI_5_1 18.07.90
 _ZTVN11Syndication4Atom5EntryE@ABI_5_1 18.07.90
 _ZTVN11Syndication4Atom6ParserE@ABI_5_1 18.07.90
 _ZTVN11Syndication4Atom6PersonE@ABI_5_1 18.07.90
 _ZTVN11Syndication4Atom6SourceE@ABI_5_1 18.07.90
 _ZTVN11Syndication4Atom7ContentE@ABI_5_1 18.07.90
 _ZTVN11Syndication4Atom8CategoryE@ABI_5_1 18.07.90
 _ZTVN11Syndication4Atom9GeneratorE@ABI_5_1 18.07.90
 _ZTVN11Syndication4FeedE@ABI_5_1 18.07.90
 _ZTVN11Syndication4ItemE@ABI_5_1 18.07.90
 _ZTVN11Syndication4RSS24ItemE@ABI_5_1 18.07.90
 _ZTVN11Syndication4RSS25CloudE@ABI_5_1 18.07.90
 _ZTVN11Syndication4RSS25ImageE@ABI_5_1 18.07.90
 _ZTVN11Syndication4RSS26ParserE@ABI_5_1 18.07.90
 _ZTVN11Syndication4RSS26SourceE@ABI_5_1 18.07.90
 _ZTVN11Syndication4RSS28CategoryE@ABI_5_1 18.07.90
 _ZTVN11Syndication4RSS28DocumentE@ABI_5_1 18.07.90
 _ZTVN11Syndication4RSS29EnclosureE@ABI_5_1 18.07.90
 _ZTVN11Syndication4RSS29TextInputE@ABI_5_1 18.07.90
 _ZTVN11Syndication5ImageE@ABI_5_1 18.07.90
 _ZTVN11Syndication6LoaderE@ABI_5_1 18.07.90
 _ZTVN11Syndication6PersonE@ABI_5_1 18.07.90
 _ZTVN11Syndication8CategoryE@ABI_5_1 18.07.90
 _ZTVN11Syndication9EnclosureE@ABI_5_1 18.07.90
 (c++)"non-virtual thunk to Syndication::Atom::Entry::accept(Syndication::SpecificItemVisitor*)@ABI_5_1" 18.07.90
 (c++)"non-virtual thunk to Syndication::RDF::Document::~Document()@ABI_5_1" 18.07.90
 (c++)"non-virtual thunk to Syndication::RDF::Item::accept(Syndication::SpecificItemVisitor*)@ABI_5_1" 18.07.90
 (c++)"non-virtual thunk to Syndication::RDF::Item::~Item()@ABI_5_1" 18.07.90
 (c++)"non-virtual thunk to Syndication::RSS2::Document::~Document()@ABI_5_1" 18.07.90
 (c++)"non-virtual thunk to Syndication::RSS2::Item::accept(Syndication::SpecificItemVisitor*)@ABI_5_1" 18.07.90
 (c++)"non-virtual thunk to Syndication::RSS2::Item::~Item()@ABI_5_1" 18.07.90
